target datalayout = "e-m:e-p270:32:32-p271:32:32-p272:64:64-i64:64-i128:128-f80:128-n8:16:32:64-S128"
target triple = "x86_64-pc-linux-gnu"

%struct._YR_ARENA_PAGE = type { ptr, ptr, i64, i64, ptr, ptr, ptr, ptr }
%struct._YR_ARENA = type { i32, ptr, ptr }

; Function Attrs: nounwind uwtable
define ptr @_yr_arena_new_page(i64 noundef %0) #0 {
  %2 = alloca ptr, align 8
  %3 = alloca i64, align 8
  %4 = alloca ptr, align 8
  store i64 %0, ptr %3, align 8
  %5 = call ptr @cli_max_malloc(i64 noundef 64)
  store ptr %5, ptr %4, align 8
  %6 = load ptr, ptr %4, align 8
  %7 = icmp eq ptr %6, null
  br i1 %7, label %8, label %9

8:                                                ; preds = %1
  store ptr null, ptr %2, align 8
  br label %35

9:                                                ; preds = %1
  %10 = load i64, ptr %3, align 8
  %11 = call ptr @cli_max_malloc(i64 noundef %10)
  %12 = load ptr, ptr %4, align 8
  %13 = getelementptr inbounds %struct._YR_ARENA_PAGE, ptr %12, i32 0, i32 1
  store ptr %11, ptr %13, align 8
  %14 = load ptr, ptr %4, align 8
  %15 = getelementptr inbounds %struct._YR_ARENA_PAGE, ptr %14, i32 0, i32 1
  %16 = load ptr, ptr %15, align 8
  %17 = icmp eq ptr %16, null
  br i1 %17, label %18, label %20

18:                                               ; preds = %9
  %19 = load ptr, ptr %4, align 8
  call void @free(ptr noundef %19) #8
  store ptr null, ptr %2, align 8
  br label %35

20:                                               ; preds = %9
  %21 = load i64, ptr %3, align 8
  %22 = load ptr, ptr %4, align 8
  %23 = getelementptr inbounds %struct._YR_ARENA_PAGE, ptr %22, i32 0, i32 2
  store i64 %21, ptr %23, align 8
  %24 = load ptr, ptr %4, align 8
  %25 = getelementptr inbounds %struct._YR_ARENA_PAGE, ptr %24, i32 0, i32 3
  store i64 0, ptr %25, align 8
  %26 = load ptr, ptr %4, align 8
  %27 = getelementptr inbounds %struct._YR_ARENA_PAGE, ptr %26, i32 0, i32 6
  store ptr null, ptr %27, align 8
  %28 = load ptr, ptr %4, align 8
  %29 = getelementptr inbounds %struct._YR_ARENA_PAGE, ptr %28, i32 0, i32 7
  store ptr null, ptr %29, align 8
  %30 = load ptr, ptr %4, align 8
  %31 = getelementptr inbounds %struct._YR_ARENA_PAGE, ptr %30, i32 0, i32 4
  store ptr null, ptr %31, align 8
  %32 = load ptr, ptr %4, align 8
  %33 = getelementptr inbounds %struct._YR_ARENA_PAGE, ptr %32, i32 0, i32 5
  store ptr null, ptr %33, align 8
  %34 = load ptr, ptr %4, align 8
  store ptr %34, ptr %2, align 8
  br label %35

35:                                               ; preds = %20, %18, %8
  %36 = load ptr, ptr %2, align 8
  ret ptr %36
}

; Function Attrs: nounwind uwtable
define i32 @yr_arena_create(i64 noundef %0, i32 noundef %1, ptr noundef %2) #0 {
  %4 = alloca i32, align 4
  %5 = alloca i64, align 8
  %6 = alloca i32, align 4
  %7 = alloca ptr, align 8
  %8 = alloca ptr, align 8
  %9 = alloca ptr, align 8
  store i64 %0, ptr %5, align 8
  store i32 %1, ptr %6, align 4
  store ptr %2, ptr %7, align 8
  %10 = load ptr, ptr %7, align 8
  store ptr null, ptr %10, align 8
  %11 = call ptr @cli_max_malloc(i64 noundef 24)
  store ptr %11, ptr %8, align 8
  %12 = load ptr, ptr %8, align 8
  %13 = icmp eq ptr %12, null
  br i1 %13, label %14, label %15

14:                                               ; preds = %3
  store i32 1, ptr %4, align 4
  br label %35

15:                                               ; preds = %3
  %16 = load i64, ptr %5, align 8
  %17 = call ptr @_yr_arena_new_page(i64 noundef %16)
  store ptr %17, ptr %9, align 8
  %18 = load ptr, ptr %9, align 8
  %19 = icmp eq ptr %18, null
  br i1 %19, label %20, label %22

20:                                               ; preds = %15
  %21 = load ptr, ptr %8, align 8
  call void @free(ptr noundef %21) #8
  store i32 1, ptr %4, align 4
  br label %35

22:                                               ; preds = %15
  %23 = load ptr, ptr %9, align 8
  %24 = load ptr, ptr %8, align 8
  %25 = getelementptr inbounds %struct._YR_ARENA, ptr %24, i32 0, i32 1
  store ptr %23, ptr %25, align 8
  %26 = load ptr, ptr %9, align 8
  %27 = load ptr, ptr %8, align 8
  %28 = getelementptr inbounds %struct._YR_ARENA, ptr %27, i32 0, i32 2
  store ptr %26, ptr %28, align 8
  %29 = load i32, ptr %6, align 4
  %30 = or i32 %29, 2
  %31 = load ptr, ptr %8, align 8
  %32 = getelementptr inbounds %struct._YR_ARENA, ptr %31, i32 0, i32 0
  store i32 %30, ptr %32, align 8
  %33 = load ptr, ptr %8, align 8
  %34 = load ptr, ptr %7, align 8
  store ptr %33, ptr %34, align 8
  store i32 0, ptr %4, align 4
  br label %35

35:                                               ; preds = %22, %20, %14
  %36 = load i32, ptr %4, align 4
  ret i32 %36
}