; Function Attrs: nounwind uwtable
define noundef i32 @yr_arena_create(i64 noundef %0, i32 noundef %1, ptr nocapture noundef writeonly %2) local_unnamed_addr #0 {
  store ptr null, ptr %2, align 8
  %4 = tail call ptr @cli_max_malloc(i64 noundef 24) #11
  %5 = icmp eq ptr %4, null
  br i1 %5, label %21, label %6

6:                                                ; preds = %3
  %7 = tail call ptr @cli_max_malloc(i64 noundef 64) #11
  %8 = icmp eq ptr %7, null
  br i1 %8, label %14, label %9

9:                                                ; preds = %6
  %10 = tail call ptr @cli_max_malloc(i64 noundef %0) #11
  %11 = getelementptr inbounds i8, ptr %7, i64 8
  store ptr %10, ptr %11, align 8
  %12 = icmp eq ptr %10, null
  br i1 %12, label %13, label %15

13:                                               ; preds = %9
  tail call void @free(ptr noundef nonnull %7) #11
  br label %14

14:                                               ; preds = %13, %6
  tail call void @free(ptr noundef nonnull %4) #11
  br label %21

15:                                               ; preds = %9
  %16 = getelementptr inbounds i8, ptr %7, i64 16
  store i64 %0, ptr %16, align 8
  %17 = getelementptr inbounds i8, ptr %7, i64 24
  tail call void @llvm.memset.p0.i64(ptr noundef nonnull align 8 dereferenceable(40) %17, i8 0, i64 40, i1 false)
  %18 = getelementptr inbounds i8, ptr %4, i64 8
  store ptr %7, ptr %18, align 8
  %19 = getelementptr inbounds i8, ptr %4, i64 16
  store ptr %7, ptr %19, align 8
  %20 = or i32 %1, 2
  store i32 %20, ptr %4, align 8
  store ptr %4, ptr %2, align 8
  br label %21

21:                                               ; preds = %3, %15, %14
  %.0 = phi i32 [ 1, %14 ], [ 0, %15 ], [ 1, %3 ]
  ret i32 %.0
}